target datalayout = "e-m:e-p270:32:32-p271:32:32-p272:64:64-i64:64-i128:128-f80:128-n8:16:32:64-S128"
target triple = "x86_64-pc-linux-gnu"

%struct._zval_struct = type { %union._zend_value, %union.anon, %union.anon.2 }
%union._zend_value = type { i64 }
%union.anon = type { i32 }
%union.anon.2 = type { i32 }
%struct._zend_constant = type { %struct._zval_struct, ptr, ptr }

@zend_string_init_interned = external global ptr, align 8

; Function Attrs: nounwind uwtable
define dso_local void @zend_register_bool_constant(ptr noundef %0, i64 noundef %1, i1 noundef zeroext %2, i32 noundef %3, i32 noundef %4) #0 {
  %6 = alloca ptr, align 8
  %7 = alloca i64, align 8
  %8 = alloca i8, align 1
  %9 = alloca i32, align 4
  %10 = alloca i32, align 4
  %11 = alloca %struct._zend_constant, align 8
  store ptr %0, ptr %6, align 8, !tbaa !56
  store i64 %1, ptr %7, align 8, !tbaa !57
  %12 = zext i1 %2 to i8
  store i8 %12, ptr %8, align 1, !tbaa !18
  store i32 %3, ptr %9, align 4, !tbaa !22
  store i32 %4, ptr %10, align 4, !tbaa !22
  call void @llvm.lifetime.start.p0(i64 32, ptr %11) #12
  br label %13

13:                                               ; preds = %5
  %14 = load i8, ptr %8, align 1, !tbaa !18, !range !20, !noundef !21
  %15 = trunc i8 %14 to i1
  %16 = select i1 %15, i32 3, i32 2
  %17 = getelementptr inbounds nuw %struct._zend_constant, ptr %11, i32 0, i32 0
  %18 = getelementptr inbounds nuw %struct._zval_struct, ptr %17, i32 0, i32 1
  store i32 %16, ptr %18, align 8, !tbaa !9
  br label %19

19:                                               ; preds = %13
  br label %20

20:                                               ; preds = %19
  br label %21

21:                                               ; preds = %20
  %22 = load i32, ptr %9, align 4, !tbaa !22
  %23 = and i32 %22, 255
  %24 = load i32, ptr %10, align 4, !tbaa !22
  %25 = shl i32 %24, 8
  %26 = or i32 %23, %25
  %27 = getelementptr inbounds nuw %struct._zend_constant, ptr %11, i32 0, i32 0
  %28 = getelementptr inbounds nuw %struct._zval_struct, ptr %27, i32 0, i32 2
  store i32 %26, ptr %28, align 4, !tbaa !9
  br label %29

29:                                               ; preds = %21
  br label %30

30:                                               ; preds = %29
  %31 = load ptr, ptr @zend_string_init_interned, align 8, !tbaa !54
  %32 = load ptr, ptr %6, align 8, !tbaa !56
  %33 = load i64, ptr %7, align 8, !tbaa !57
  %34 = load i32, ptr %9, align 4, !tbaa !22
  %35 = and i32 %34, 1
  %36 = icmp ne i32 %35, 0
  %37 = call ptr %31(ptr noundef %32, i64 noundef %33, i1 noundef zeroext %36)
  %38 = getelementptr inbounds nuw %struct._zend_constant, ptr %11, i32 0, i32 1
  store ptr %37, ptr %38, align 8, !tbaa !12
  %39 = call i32 @zend_register_constant(ptr noundef %11)
  call void @llvm.lifetime.end.p0(i64 32, ptr %11) #12
  ret void
}