; Function Attrs: nounwind uwtable
define dso_local void @zend_register_bool_constant(ptr noundef %0, i64 noundef %1, i1 noundef zeroext %2, i32 noundef %3, i32 noundef %4) local_unnamed_addr #0 {
  %6 = alloca %struct._zend_constant, align 8
  call void @llvm.lifetime.start.p0(i64 32, ptr nonnull %6) #11
  %7 = select i1 %2, i32 3, i32 2
  %8 = getelementptr inbounds nuw i8, ptr %6, i64 8
  store i32 %7, ptr %8, align 8, !tbaa !4
  %9 = and i32 %3, 255
  %10 = shl i32 %4, 8
  %11 = or disjoint i32 %10, %9
  %12 = getelementptr inbounds nuw i8, ptr %6, i64 12
  store i32 %11, ptr %12, align 4, !tbaa !4
  %13 = load ptr, ptr @zend_string_init_interned, align 8, !tbaa !48
  %14 = and i32 %3, 1
  %15 = icmp ne i32 %14, 0
  %16 = tail call ptr %13(ptr noundef %0, i64 noundef %1, i1 noundef zeroext %15) #11
  %17 = getelementptr inbounds nuw i8, ptr %6, i64 16
  store ptr %16, ptr %17, align 8, !tbaa !10
  %18 = call i32 @zend_register_constant(ptr noundef nonnull %6)
  call void @llvm.lifetime.end.p0(i64 32, ptr nonnull %6) #11
  ret void
}